; Function Attrs: mustprogress uwtable
define void @_ZN10BigIntegerC2Et(ptr noundef nonnull align 8 dereferenceable(24) %0, i16 noundef zeroext %1) unnamed_addr #0 align 2 personality ptr @__gxx_personality_v0 {
  %3 = getelementptr inbounds nuw i8, ptr %0, i64 8
  tail call void @_ZN11BigUnsignedC1Et(ptr noundef nonnull align 8 dereferenceable(16) %3, i16 noundef zeroext %1)
  %4 = getelementptr inbounds nuw i8, ptr %0, i64 12
  %5 = load i32, ptr %4, align 4, !tbaa !16
  %6 = icmp ne i32 %5, 0
  %7 = zext i1 %6 to i32
  store i32 %7, ptr %0, align 8, !tbaa !6
  ret void
}